target datalayout = "e-m:e-p270:32:32-p271:32:32-p272:64:64-i64:64-i128:128-f80:128-n8:16:32:64-S128"
target triple = "x86_64-unknown-linux-gnu"

%"class.proxygen::HTTPSessionActivityTracker" = type { ptr, ptr, i64, i64, i64, i64 }
%"class.wangle::ManagedConnection" = type { %"class.folly::HHWheelTimerBase<std::chrono::duration<long, std::ratio<1, 1000>>>::Callback", %"class.folly::DelayedDestruction.base", i32, ptr, %"class.wangle::ConnectionAgeTimeout", %"class.folly::Optional", %"class.std::chrono::time_point", %"class.boost::intrusive::list_member_hook" }
%"class.folly::HHWheelTimerBase<std::chrono::duration<long, std::ratio<1, 1000>>>::Callback" = type { ptr, %"class.boost::intrusive::list_base_hook", ptr, %"class.std::chrono::time_point", i32, %"class.std::shared_ptr" }
%"class.boost::intrusive::list_base_hook" = type { %"class.boost::intrusive::generic_hook" }
%"class.boost::intrusive::generic_hook" = type { %"struct.boost::intrusive::node_holder" }
%"struct.boost::intrusive::node_holder" = type { %"struct.boost::intrusive::list_node" }
%"struct.boost::intrusive::list_node" = type { ptr, ptr }
%"class.std::shared_ptr" = type { %"class.std::__shared_ptr" }
%"class.std::__shared_ptr" = type { ptr, %"class.std::__shared_count" }
%"class.std::__shared_count" = type { ptr }
%"class.folly::DelayedDestruction.base" = type { %"class.folly::DelayedDestructionBase.base", i8 }
%"class.folly::DelayedDestructionBase.base" = type <{ ptr, i32 }>
%"class.wangle::ConnectionAgeTimeout" = type { %"class.folly::HHWheelTimerBase<std::chrono::duration<long, std::ratio<1, 1000>>>::Callback", ptr }
%"class.folly::Optional" = type { %"struct.folly::Optional<std::chrono::time_point<std::chrono::_V2::steady_clock, std::chrono::duration<long, std::ratio<1, 1000000000>>>>::StorageTriviallyDestructible" }
%"struct.folly::Optional<std::chrono::time_point<std::chrono::_V2::steady_clock, std::chrono::duration<long, std::ratio<1, 1000000000>>>>::StorageTriviallyDestructible" = type <{ %union.anon, i8, [7 x i8] }>
%union.anon = type { %"class.std::chrono::time_point" }
%"class.std::chrono::time_point" = type { %"class.std::chrono::duration" }
%"class.std::chrono::duration" = type { i64 }
%"class.boost::intrusive::list_member_hook" = type { %"class.boost::intrusive::generic_hook.0" }
%"class.boost::intrusive::generic_hook.0" = type { %"struct.boost::intrusive::list_node" }

; Function Attrs: mustprogress nounwind uwtable
define linkonce_odr noundef ptr @_ZN6wangle17ManagedConnection20getConnectionManagerEv(ptr noundef nonnull align 8 dereferenceable(208) %this) #4 comdat align 2 {
entry:
  %this.addr = alloca ptr, align 8
  store ptr %this, ptr %this.addr, align 8
  %this1 = load ptr, ptr %this.addr, align 8
  %connectionManager_ = getelementptr inbounds %"class.wangle::ManagedConnection", ptr %this1, i32 0, i32 3
  %0 = load ptr, ptr %connectionManager_, align 8
  ret ptr %0
}

; Function Attrs: mustprogress uwtable
define void @_ZN8proxygen26HTTPSessionActivityTracker14reportActivityEv(ptr noundef nonnull align 8 dereferenceable(48) %this) unnamed_addr #5 align 2 {
entry:
  %this.addr = alloca ptr, align 8
  store ptr %this, ptr %this.addr, align 8
  %this1 = load ptr, ptr %this.addr, align 8
  %managedConnection_ = getelementptr inbounds %"class.proxygen::HTTPSessionActivityTracker", ptr %this1, i32 0, i32 1
  %0 = load ptr, ptr %managedConnection_, align 8
  %call = call noundef ptr @_ZN6wangle17ManagedConnection20getConnectionManagerEv(ptr noundef nonnull align 8 dereferenceable(208) %0)
  %tobool = icmp ne ptr %call, null
  br i1 %tobool, label %if.then, label %if.end

if.then:                                          ; preds = %entry
  %managedConnection_2 = getelementptr inbounds %"class.proxygen::HTTPSessionActivityTracker", ptr %this1, i32 0, i32 1
  %1 = load ptr, ptr %managedConnection_2, align 8
  %call3 = call noundef ptr @_ZN6wangle17ManagedConnection20getConnectionManagerEv(ptr noundef nonnull align 8 dereferenceable(208) %1)
  %managedConnection_4 = getelementptr inbounds %"class.proxygen::HTTPSessionActivityTracker", ptr %this1, i32 0, i32 1
  %2 = load ptr, ptr %managedConnection_4, align 8
  call void @_ZN6wangle17ConnectionManager14reportActivityERNS_17ManagedConnectionE(ptr noundef nonnull align 8 dereferenceable(376) %call3, ptr noundef nonnull align 8 dereferenceable(208) %2)
  br label %if.end

if.end:                                           ; preds = %if.then, %entry
  ret void
}