; Function Attrs: mustprogress uwtable
define void @_ZN8proxygen26HTTPSessionActivityTracker14reportActivityEv(ptr nocapture noundef nonnull readonly align 8 dereferenceable(48) %this) unnamed_addr #4 align 2 {
entry:
  %managedConnection_ = getelementptr inbounds i8, ptr %this, i64 8
  %0 = load ptr, ptr %managedConnection_, align 8
  %connectionManager_.i = getelementptr inbounds i8, ptr %0, i64 88
  %1 = load ptr, ptr %connectionManager_.i, align 8
  %tobool.not = icmp eq ptr %1, null
  br i1 %tobool.not, label %if.end, label %if.then

if.then:                                          ; preds = %entry
  tail call void @_ZN6wangle17ConnectionManager14reportActivityERNS_17ManagedConnectionE(ptr noundef nonnull align 8 dereferenceable(376) %1, ptr noundef nonnull align 8 dereferenceable(208) %0)
  br label %if.end

if.end:                                           ; preds = %if.then, %entry
  ret void
}